target datalayout = "e-m:e-p270:32:32-p271:32:32-p272:64:64-i64:64-i128:128-f80:128-n8:16:32:64-S128"
target triple = "x86_64-pc-linux-gnu"

%struct.Vec_Int_t_ = type { i32, i32, ptr }
%struct.Sfm_Tim_t_ = type { ptr, ptr, ptr, i32, i32, %struct.Vec_Int_t_, %struct.Vec_Int_t_, %struct.Vec_Wec_t_, %struct.Vec_Int_t_, %struct.Vec_Wrd_t_ }
%struct.Vec_Wec_t_ = type { i32, i32, ptr }
%struct.Vec_Wrd_t_ = type { i32, i32, ptr }
%struct.Abc_Ntk_t_ = type { i32, i32, ptr, ptr, ptr, ptr, ptr, ptr, ptr, ptr, ptr, ptr, ptr, [11 x i32], i32, i32, i32, i32, ptr, i32, ptr, ptr, i32, i32, i32, double, i32, %struct.Vec_Int_t_, ptr, ptr, ptr, ptr, ptr, float, i32, ptr, ptr, ptr, ptr, ptr, ptr, ptr, ptr, ptr, ptr, ptr, ptr, ptr, ptr, ptr, ptr, ptr, ptr, ptr, ptr, ptr, ptr }
%struct.Vec_Ptr_t_ = type { i32, i32, ptr }

@.str = private unnamed_addr constant [36 x i8] c"Max delay = %.2f.  Path = %d (%d).\0A\00", align 1

; Function Attrs: inlinehint nounwind uwtable
define internal void @Vec_IntGrow(ptr noundef %0, i32 noundef %1) #2 {
  %3 = alloca ptr, align 8
  %4 = alloca i32, align 4
  store ptr %0, ptr %3, align 8, !tbaa !29
  store i32 %1, ptr %4, align 4, !tbaa !12
  %5 = load ptr, ptr %3, align 8, !tbaa !29
  %6 = getelementptr inbounds nuw %struct.Vec_Int_t_, ptr %5, i32 0, i32 0
  %7 = load i32, ptr %6, align 8, !tbaa !51
  %8 = load i32, ptr %4, align 4, !tbaa !12
  %9 = icmp sge i32 %7, %8
  br i1 %9, label %10, label %11

10:                                               ; preds = %2
  br label %36

11:                                               ; preds = %2
  %12 = load ptr, ptr %3, align 8, !tbaa !29
  %13 = getelementptr inbounds nuw %struct.Vec_Int_t_, ptr %12, i32 0, i32 2
  %14 = load ptr, ptr %13, align 8, !tbaa !52
  %15 = icmp ne ptr %14, null
  br i1 %15, label %16, label %24

16:                                               ; preds = %11
  %17 = load ptr, ptr %3, align 8, !tbaa !29
  %18 = getelementptr inbounds nuw %struct.Vec_Int_t_, ptr %17, i32 0, i32 2
  %19 = load ptr, ptr %18, align 8, !tbaa !52
  %20 = load i32, ptr %4, align 4, !tbaa !12
  %21 = sext i32 %20 to i64
  %22 = mul i64 4, %21
  %23 = call ptr @realloc(ptr noundef %19, i64 noundef %22) #11
  br label %29

24:                                               ; preds = %11
  %25 = load i32, ptr %4, align 4, !tbaa !12
  %26 = sext i32 %25 to i64
  %27 = mul i64 4, %26
  %28 = call noalias ptr @malloc(i64 noundef %27) #12
  br label %29

29:                                               ; preds = %24, %16
  %30 = phi ptr [ %23, %16 ], [ %28, %24 ]
  %31 = load ptr, ptr %3, align 8, !tbaa !29
  %32 = getelementptr inbounds nuw %struct.Vec_Int_t_, ptr %31, i32 0, i32 2
  store ptr %30, ptr %32, align 8, !tbaa !52
  %33 = load i32, ptr %4, align 4, !tbaa !12
  %34 = load ptr, ptr %3, align 8, !tbaa !29
  %35 = getelementptr inbounds nuw %struct.Vec_Int_t_, ptr %34, i32 0, i32 0
  store i32 %33, ptr %35, align 8, !tbaa !51
  br label %36

36:                                               ; preds = %29, %10
  ret void
}

; Function Attrs: inlinehint nounwind uwtable
define internal i32 @Vec_PtrSize(ptr noundef %0) #2 {
  %2 = alloca ptr, align 8
  store ptr %0, ptr %2, align 8, !tbaa !66
  %3 = load ptr, ptr %2, align 8, !tbaa !66
  %4 = getelementptr inbounds nuw %struct.Vec_Ptr_t_, ptr %3, i32 0, i32 1
  %5 = load i32, ptr %4, align 4, !tbaa !71
  ret i32 %5
}

; Function Attrs: inlinehint nounwind uwtable
define internal void @Vec_IntFill(ptr noundef %0, i32 noundef %1, i32 noundef %2) #2 {
  %4 = alloca ptr, align 8
  %5 = alloca i32, align 4
  %6 = alloca i32, align 4
  %7 = alloca i32, align 4
  store ptr %0, ptr %4, align 8, !tbaa !29
  store i32 %1, ptr %5, align 4, !tbaa !12
  store i32 %2, ptr %6, align 4, !tbaa !12
  call void @llvm.lifetime.start.p0(i64 4, ptr %7) #9
  %8 = load ptr, ptr %4, align 8, !tbaa !29
  %9 = load i32, ptr %5, align 4, !tbaa !12
  call void @Vec_IntGrow(ptr noundef %8, i32 noundef %9)
  store i32 0, ptr %7, align 4, !tbaa !12
  br label %10

10:                                               ; preds = %22, %3
  %11 = load i32, ptr %7, align 4, !tbaa !12
  %12 = load i32, ptr %5, align 4, !tbaa !12
  %13 = icmp slt i32 %11, %12
  br i1 %13, label %14, label %25

14:                                               ; preds = %10
  %15 = load i32, ptr %6, align 4, !tbaa !12
  %16 = load ptr, ptr %4, align 8, !tbaa !29
  %17 = getelementptr inbounds nuw %struct.Vec_Int_t_, ptr %16, i32 0, i32 2
  %18 = load ptr, ptr %17, align 8, !tbaa !52
  %19 = load i32, ptr %7, align 4, !tbaa !12
  %20 = sext i32 %19 to i64
  %21 = getelementptr inbounds i32, ptr %18, i64 %20
  store i32 %15, ptr %21, align 4, !tbaa !12
  br label %22

22:                                               ; preds = %14
  %23 = load i32, ptr %7, align 4, !tbaa !12
  %24 = add nsw i32 %23, 1
  store i32 %24, ptr %7, align 4, !tbaa !12
  br label %10, !llvm.loop !73

25:                                               ; preds = %10
  %26 = load i32, ptr %5, align 4, !tbaa !12
  %27 = load ptr, ptr %4, align 8, !tbaa !29
  %28 = getelementptr inbounds nuw %struct.Vec_Int_t_, ptr %27, i32 0, i32 1
  store i32 %26, ptr %28, align 4, !tbaa !50
  call void @llvm.lifetime.end.p0(i64 4, ptr %7) #9
  ret void
}

; Function Attrs: inlinehint nounwind uwtable
define internal i32 @Abc_NtkObjNumMax(ptr noundef %0) #2 {
  %2 = alloca ptr, align 8
  store ptr %0, ptr %2, align 8, !tbaa !63
  %3 = load ptr, ptr %2, align 8, !tbaa !63
  %4 = getelementptr inbounds nuw %struct.Abc_Ntk_t_, ptr %3, i32 0, i32 5
  %5 = load ptr, ptr %4, align 8, !tbaa !46
  %6 = call i32 @Vec_PtrSize(ptr noundef %5)
  ret i32 %6
}

; Function Attrs: inlinehint nounwind uwtable
define internal i32 @Abc_NtkNodeNum(ptr noundef %0) #2 {
  %2 = alloca ptr, align 8
  store ptr %0, ptr %2, align 8, !tbaa !63
  %3 = load ptr, ptr %2, align 8, !tbaa !63
  %4 = getelementptr inbounds nuw %struct.Abc_Ntk_t_, ptr %3, i32 0, i32 13
  %5 = getelementptr inbounds [11 x i32], ptr %4, i64 0, i64 7
  %6 = load i32, ptr %5, align 4, !tbaa !12
  ret i32 %6
}

; Function Attrs: inlinehint nounwind uwtable
define internal float @Scl_Int2Flt(i32 noundef %0) #2 {
  %2 = alloca i32, align 4
  store i32 %0, ptr %2, align 4, !tbaa !12
  %3 = load i32, ptr %2, align 4, !tbaa !12
  %4 = sitofp i32 %3 to float
  %5 = fdiv float %4, 1.000000e+03
  ret float %5
}

; Function Attrs: nounwind uwtable
define ptr @Sfm_TimStart(ptr noundef %0, ptr noundef %1, ptr noundef %2, i32 noundef %3) #0 {
  %5 = alloca ptr, align 8
  %6 = alloca ptr, align 8
  %7 = alloca ptr, align 8
  %8 = alloca i32, align 4
  %9 = alloca ptr, align 8
  store ptr %0, ptr %5, align 8, !tbaa !74
  store ptr %1, ptr %6, align 8, !tbaa !75
  store ptr %2, ptr %7, align 8, !tbaa !63
  store i32 %3, ptr %8, align 4, !tbaa !12
  call void @llvm.lifetime.start.p0(i64 8, ptr %9) #9
  %10 = call noalias ptr @calloc(i64 noundef 1, i64 noundef 112) #10
  store ptr %10, ptr %9, align 8, !tbaa !3
  %11 = load ptr, ptr %5, align 8, !tbaa !74
  %12 = load ptr, ptr %9, align 8, !tbaa !3
  %13 = getelementptr inbounds nuw %struct.Sfm_Tim_t_, ptr %12, i32 0, i32 0
  store ptr %11, ptr %13, align 8, !tbaa !76
  %14 = load ptr, ptr %6, align 8, !tbaa !75
  %15 = load ptr, ptr %9, align 8, !tbaa !3
  %16 = getelementptr inbounds nuw %struct.Sfm_Tim_t_, ptr %15, i32 0, i32 1
  store ptr %14, ptr %16, align 8, !tbaa !77
  %17 = load ptr, ptr %7, align 8, !tbaa !63
  %18 = load ptr, ptr %9, align 8, !tbaa !3
  %19 = getelementptr inbounds nuw %struct.Sfm_Tim_t_, ptr %18, i32 0, i32 2
  store ptr %17, ptr %19, align 8, !tbaa !61
  %20 = load ptr, ptr %9, align 8, !tbaa !3
  %21 = getelementptr inbounds nuw %struct.Sfm_Tim_t_, ptr %20, i32 0, i32 5
  %22 = load ptr, ptr %7, align 8, !tbaa !63
  %23 = call i32 @Abc_NtkObjNumMax(ptr noundef %22)
  %24 = mul nsw i32 3, %23
  call void @Vec_IntFill(ptr noundef %21, i32 noundef %24, i32 noundef 0)
  %25 = load ptr, ptr %9, align 8, !tbaa !3
  %26 = getelementptr inbounds nuw %struct.Sfm_Tim_t_, ptr %25, i32 0, i32 6
  %27 = load ptr, ptr %7, align 8, !tbaa !63
  %28 = call i32 @Abc_NtkObjNumMax(ptr noundef %27)
  %29 = mul nsw i32 3, %28
  call void @Vec_IntFill(ptr noundef %26, i32 noundef %29, i32 noundef 0)
  %30 = load ptr, ptr %9, align 8, !tbaa !3
  %31 = call i32 @Sfm_TimTrace(ptr noundef %30)
  %32 = load ptr, ptr %9, align 8, !tbaa !3
  %33 = getelementptr inbounds nuw %struct.Sfm_Tim_t_, ptr %32, i32 0, i32 3
  store i32 %31, ptr %33, align 8, !tbaa !54
  %34 = load i32, ptr %8, align 4, !tbaa !12
  %35 = load ptr, ptr %9, align 8, !tbaa !3
  %36 = getelementptr inbounds nuw %struct.Sfm_Tim_t_, ptr %35, i32 0, i32 4
  store i32 %34, ptr %36, align 4, !tbaa !78
  %37 = load ptr, ptr %9, align 8, !tbaa !3
  call void @llvm.lifetime.end.p0(i64 8, ptr %9) #9
  ret ptr %37
}

; Function Attrs: nounwind uwtable
define void @Sfm_TimTest(ptr noundef %0) #0 {
  %2 = alloca ptr, align 8
  %3 = alloca ptr, align 8
  %4 = alloca ptr, align 8
  store ptr %0, ptr %2, align 8, !tbaa !63
  call void @llvm.lifetime.start.p0(i64 8, ptr %3) #9
  %5 = load ptr, ptr %2, align 8, !tbaa !63
  %6 = getelementptr inbounds nuw %struct.Abc_Ntk_t_, ptr %5, i32 0, i32 30
  %7 = load ptr, ptr %6, align 8, !tbaa !90
  store ptr %7, ptr %3, align 8, !tbaa !74
  call void @llvm.lifetime.start.p0(i64 8, ptr %4) #9
  %8 = load ptr, ptr %3, align 8, !tbaa !74
  %9 = load ptr, ptr %2, align 8, !tbaa !63
  %10 = call ptr @Sfm_TimStart(ptr noundef %8, ptr noundef null, ptr noundef %9, i32 noundef 100)
  store ptr %10, ptr %4, align 8, !tbaa !3
  %11 = load ptr, ptr %4, align 8, !tbaa !3
  %12 = getelementptr inbounds nuw %struct.Sfm_Tim_t_, ptr %11, i32 0, i32 3
  %13 = load i32, ptr %12, align 8, !tbaa !54
  %14 = call float @Scl_Int2Flt(i32 noundef %13)
  %15 = fpext float %14 to double
  %16 = load ptr, ptr %4, align 8, !tbaa !3
  %17 = call i32 @Sfm_TimCriticalPath(ptr noundef %16, i32 noundef 1)
  %18 = load ptr, ptr %4, align 8, !tbaa !3
  %19 = getelementptr inbounds nuw %struct.Sfm_Tim_t_, ptr %18, i32 0, i32 2
  %20 = load ptr, ptr %19, align 8, !tbaa !61
  %21 = call i32 @Abc_NtkNodeNum(ptr noundef %20)
  %22 = call i32 (ptr, ...) @printf(ptr noundef @.str, double noundef %15, i32 noundef %17, i32 noundef %21)
  %23 = load ptr, ptr %4, align 8, !tbaa !3
  call void @Sfm_TimStop(ptr noundef %23)
  call void @llvm.lifetime.end.p0(i64 8, ptr %4) #9
  call void @llvm.lifetime.end.p0(i64 8, ptr %3) #9
  ret void
}