; Function Attrs: nounwind uwtable
define void @Sfm_TimTest(ptr noundef %0) local_unnamed_addr #0 {
  %2 = getelementptr inbounds nuw i8, ptr %0, i64 256
  %3 = load ptr, ptr %2, align 8, !tbaa !71
  %4 = tail call noalias dereferenceable_or_null(112) ptr @calloc(i64 noundef 1, i64 noundef 112) #16
  store ptr %3, ptr %4, align 8, !tbaa !63
  %5 = getelementptr inbounds nuw i8, ptr %4, i64 16
  store ptr %0, ptr %5, align 8, !tbaa !51
  %6 = getelementptr i8, ptr %0, i64 32
  %.val14.i = load ptr, ptr %6, align 8, !tbaa !39
  %7 = getelementptr i8, ptr %.val14.i, i64 4
  %.val14.val.i = load i32, ptr %7, align 4, !tbaa !53
  %8 = mul nsw i32 %.val14.val.i, 3
  %.not.i.i.i = icmp sgt i32 %.val14.val.i, 0
  br i1 %.not.i.i.i, label %.lr.ph.i17.i, label %Vec_IntGrow.exit.i16.i

Vec_IntGrow.exit.i16.i:                           ; preds = %1
  %9 = getelementptr inbounds nuw i8, ptr %4, i64 36
  store i32 %8, ptr %9, align 4, !tbaa !23
  br label %Sfm_TimStart.exit

.lr.ph.i17.i:                                     ; preds = %1
  %10 = getelementptr inbounds nuw i8, ptr %4, i64 32
  %11 = getelementptr inbounds nuw i8, ptr %4, i64 40
  %12 = zext nneg i32 %8 to i64
  %13 = shl nuw nsw i64 %12, 2
  %calloc = tail call ptr @calloc(i64 1, i64 %13)
  store ptr %calloc, ptr %11, align 8, !tbaa !3
  store i32 %8, ptr %10, align 8, !tbaa !24
  %14 = getelementptr inbounds nuw i8, ptr %4, i64 36
  store i32 %8, ptr %14, align 4, !tbaa !23
  %15 = getelementptr inbounds nuw i8, ptr %4, i64 48
  %16 = getelementptr inbounds nuw i8, ptr %4, i64 56
  %17 = zext nneg i32 %8 to i64
  %18 = shl nuw nsw i64 %17, 2
  %19 = tail call noalias ptr @malloc(i64 noundef %18) #15
  store ptr %19, ptr %16, align 8, !tbaa !3
  store i32 %8, ptr %15, align 8, !tbaa !24
  %wide.trip.count.i18.i = zext nneg i32 %8 to i64
  %20 = shl nuw nsw i64 %wide.trip.count.i18.i, 2
  tail call void @llvm.memset.p0.i64(ptr align 4 %19, i8 0, i64 %20, i1 false), !tbaa !16
  br label %Sfm_TimStart.exit

Sfm_TimStart.exit:                                ; preds = %Vec_IntGrow.exit.i16.i, %.lr.ph.i17.i
  %21 = getelementptr inbounds nuw i8, ptr %4, i64 52
  store i32 %8, ptr %21, align 4, !tbaa !23
  %22 = tail call i32 @Sfm_TimTrace(ptr noundef nonnull %4)
  %23 = getelementptr inbounds nuw i8, ptr %4, i64 24
  store i32 %22, ptr %23, align 8, !tbaa !44
  %24 = getelementptr inbounds nuw i8, ptr %4, i64 28
  store i32 100, ptr %24, align 4, !tbaa !65
  %25 = uitofp nneg i32 %22 to float
  %26 = fdiv float %25, 1.000000e+03
  %27 = fpext float %26 to double
  %28 = tail call i32 @Sfm_TimCriticalPath(ptr noundef nonnull %4, i32 noundef 1)
  %29 = load ptr, ptr %5, align 8, !tbaa !51
  %30 = getelementptr i8, ptr %29, i64 124
  %.val = load i32, ptr %30, align 4, !tbaa !16
  %31 = tail call i32 (ptr, ...) @printf(ptr noundef nonnull dereferenceable(1) @.str, double noundef %27, i32 noundef %28, i32 noundef %.val)
  tail call void @Sfm_TimStop(ptr noundef nonnull %4)
  ret void
}